target datalayout = "e-m:e-p270:32:32-p271:32:32-p272:64:64-i64:64-i128:128-f80:128-n8:16:32:64-S128"
target triple = "x86_64-pc-linux-gnu"

@.str = private unnamed_addr constant [34 x i8] c"../openssl/crypto/ec/ec_backend.c\00", align 1
@.str.5 = private unnamed_addr constant [4 x i8] c"pub\00", align 1
@.str.6 = private unnamed_addr constant [5 x i8] c"priv\00", align 1

; Function Attrs: nounwind uwtable
define i32 @ossl_ec_key_fromdata(ptr noundef %0, ptr noundef %1, i32 noundef %2) #0 {
  %4 = alloca i32, align 4
  %5 = alloca ptr, align 8
  %6 = alloca ptr, align 8
  %7 = alloca i32, align 4
  %8 = alloca ptr, align 8
  %9 = alloca ptr, align 8
  %10 = alloca ptr, align 8
  %11 = alloca ptr, align 8
  %12 = alloca ptr, align 8
  %13 = alloca i64, align 8
  %14 = alloca ptr, align 8
  %15 = alloca ptr, align 8
  %16 = alloca i32, align 4
  %17 = alloca i32, align 4
  %18 = alloca i32, align 4
  %19 = alloca ptr, align 8
  store ptr %0, ptr %5, align 8, !tbaa !18
  store ptr %1, ptr %6, align 8, !tbaa !27
  store i32 %2, ptr %7, align 4, !tbaa !16
  call void @llvm.lifetime.start.p0(i64 8, ptr %8) #3
  store ptr null, ptr %8, align 8, !tbaa !27
  call void @llvm.lifetime.start.p0(i64 8, ptr %9) #3
  store ptr null, ptr %9, align 8, !tbaa !27
  call void @llvm.lifetime.start.p0(i64 8, ptr %10) #3
  store ptr null, ptr %10, align 8, !tbaa !31
  call void @llvm.lifetime.start.p0(i64 8, ptr %11) #3
  store ptr null, ptr %11, align 8, !tbaa !42
  call void @llvm.lifetime.start.p0(i64 8, ptr %12) #3
  store ptr null, ptr %12, align 8, !tbaa !3
  call void @llvm.lifetime.start.p0(i64 8, ptr %13) #3
  call void @llvm.lifetime.start.p0(i64 8, ptr %14) #3
  store ptr null, ptr %14, align 8, !tbaa !23
  call void @llvm.lifetime.start.p0(i64 8, ptr %15) #3
  store ptr null, ptr %15, align 8, !tbaa !43
  call void @llvm.lifetime.start.p0(i64 4, ptr %16) #3
  store i32 0, ptr %16, align 4, !tbaa !16
  %20 = load ptr, ptr %5, align 8, !tbaa !18
  %21 = call ptr @EC_KEY_get0_group(ptr noundef %20)
  store ptr %21, ptr %14, align 8, !tbaa !23
  %22 = load ptr, ptr %14, align 8, !tbaa !23
  %23 = icmp eq ptr %22, null
  br i1 %23, label %24, label %25

24:                                               ; preds = %3
  store i32 0, ptr %4, align 4
  store i32 1, ptr %17, align 4
  br label %125

25:                                               ; preds = %3
  %26 = load ptr, ptr %6, align 8, !tbaa !27
  %27 = call ptr @OSSL_PARAM_locate_const(ptr noundef %26, ptr noundef @.str.5)
  store ptr %27, ptr %9, align 8, !tbaa !27
  %28 = load i32, ptr %7, align 4, !tbaa !16
  %29 = icmp ne i32 %28, 0
  br i1 %29, label %30, label %33

30:                                               ; preds = %25
  %31 = load ptr, ptr %6, align 8, !tbaa !27
  %32 = call ptr @OSSL_PARAM_locate_const(ptr noundef %31, ptr noundef @.str.6)
  store ptr %32, ptr %8, align 8, !tbaa !27
  br label %33

33:                                               ; preds = %30, %25
  %34 = load ptr, ptr %5, align 8, !tbaa !18
  %35 = call ptr @ossl_ec_key_get_libctx(ptr noundef %34)
  %36 = call ptr @BN_CTX_new_ex(ptr noundef %35)
  store ptr %36, ptr %10, align 8, !tbaa !31
  %37 = load ptr, ptr %10, align 8, !tbaa !31
  %38 = icmp eq ptr %37, null
  br i1 %38, label %39, label %40

39:                                               ; preds = %33
  br label %119

40:                                               ; preds = %33
  %41 = load ptr, ptr %9, align 8, !tbaa !27
  %42 = icmp ne ptr %41, null
  br i1 %42, label %43, label %61

43:                                               ; preds = %40
  %44 = load ptr, ptr %9, align 8, !tbaa !27
  %45 = call i32 @OSSL_PARAM_get_octet_string(ptr noundef %44, ptr noundef %12, i64 noundef 0, ptr noundef %13)
  %46 = icmp ne i32 %45, 0
  br i1 %46, label %47, label %59

47:                                               ; preds = %43
  %48 = load ptr, ptr %14, align 8, !tbaa !23
  %49 = call ptr @EC_POINT_new(ptr noundef %48)
  store ptr %49, ptr %15, align 8, !tbaa !43
  %50 = icmp eq ptr %49, null
  br i1 %50, label %59, label %51

51:                                               ; preds = %47
  %52 = load ptr, ptr %14, align 8, !tbaa !23
  %53 = load ptr, ptr %15, align 8, !tbaa !43
  %54 = load ptr, ptr %12, align 8, !tbaa !3
  %55 = load i64, ptr %13, align 8, !tbaa !8
  %56 = load ptr, ptr %10, align 8, !tbaa !31
  %57 = call i32 @EC_POINT_oct2point(ptr noundef %52, ptr noundef %53, ptr noundef %54, i64 noundef %55, ptr noundef %56)
  %58 = icmp ne i32 %57, 0
  br i1 %58, label %60, label %59

59:                                               ; preds = %51, %47, %43
  br label %119

60:                                               ; preds = %51
  br label %61

61:                                               ; preds = %60, %40
  %62 = load ptr, ptr %8, align 8, !tbaa !27
  %63 = icmp ne ptr %62, null
  br i1 %63, label %64, label %100

64:                                               ; preds = %61
  %65 = load i32, ptr %7, align 4, !tbaa !16
  %66 = icmp ne i32 %65, 0
  br i1 %66, label %67, label %100

67:                                               ; preds = %64
  call void @llvm.lifetime.start.p0(i64 4, ptr %18) #3
  call void @llvm.lifetime.start.p0(i64 8, ptr %19) #3
  %68 = load ptr, ptr %14, align 8, !tbaa !23
  %69 = call ptr @EC_GROUP_get0_order(ptr noundef %68)
  store ptr %69, ptr %19, align 8, !tbaa !42
  %70 = load ptr, ptr %19, align 8, !tbaa !42
  %71 = icmp eq ptr %70, null
  br i1 %71, label %76, label %72

72:                                               ; preds = %67
  %73 = load ptr, ptr %19, align 8, !tbaa !42
  %74 = call i32 @BN_is_zero(ptr noundef %73)
  %75 = icmp ne i32 %74, 0
  br i1 %75, label %76, label %77

76:                                               ; preds = %72, %67
  store i32 2, ptr %17, align 4
  br label %97

77:                                               ; preds = %72
  %78 = load ptr, ptr %19, align 8, !tbaa !42
  %79 = call i32 @bn_get_top(ptr noundef %78)
  %80 = add nsw i32 %79, 2
  store i32 %80, ptr %18, align 4, !tbaa !16
  %81 = call ptr @BN_secure_new()
  store ptr %81, ptr %11, align 8, !tbaa !42
  %82 = icmp eq ptr %81, null
  br i1 %82, label %83, label %84

83:                                               ; preds = %77
  store i32 2, ptr %17, align 4
  br label %97

84:                                               ; preds = %77
  %85 = load ptr, ptr %11, align 8, !tbaa !42
  %86 = load i32, ptr %18, align 4, !tbaa !16
  %87 = call ptr @bn_wexpand(ptr noundef %85, i32 noundef %86)
  %88 = icmp eq ptr %87, null
  br i1 %88, label %89, label %90

89:                                               ; preds = %84
  store i32 2, ptr %17, align 4
  br label %97

90:                                               ; preds = %84
  %91 = load ptr, ptr %11, align 8, !tbaa !42
  call void @BN_set_flags(ptr noundef %91, i32 noundef 4)
  %92 = load ptr, ptr %8, align 8, !tbaa !27
  %93 = call i32 @OSSL_PARAM_get_BN(ptr noundef %92, ptr noundef %11)
  %94 = icmp ne i32 %93, 0
  br i1 %94, label %96, label %95

95:                                               ; preds = %90
  store i32 2, ptr %17, align 4
  br label %97

96:                                               ; preds = %90
  store i32 0, ptr %17, align 4
  br label %97

97:                                               ; preds = %95, %89, %83, %76, %96
  call void @llvm.lifetime.end.p0(i64 8, ptr %19) #3
  call void @llvm.lifetime.end.p0(i64 4, ptr %18) #3
  %98 = load i32, ptr %17, align 4
  switch i32 %98, label %125 [
    i32 0, label %99
    i32 2, label %119
  ]

99:                                               ; preds = %97
  br label %100

100:                                              ; preds = %99, %64, %61
  %101 = load ptr, ptr %11, align 8, !tbaa !42
  %102 = icmp ne ptr %101, null
  br i1 %102, label %103, label %109

103:                                              ; preds = %100
  %104 = load ptr, ptr %5, align 8, !tbaa !18
  %105 = load ptr, ptr %11, align 8, !tbaa !42
  %106 = call i32 @EC_KEY_set_private_key(ptr noundef %104, ptr noundef %105)
  %107 = icmp ne i32 %106, 0
  br i1 %107, label %109, label %108

108:                                              ; preds = %103
  br label %119

109:                                              ; preds = %103, %100
  %110 = load ptr, ptr %15, align 8, !tbaa !43
  %111 = icmp ne ptr %110, null
  br i1 %111, label %112, label %118

112:                                              ; preds = %109
  %113 = load ptr, ptr %5, align 8, !tbaa !18
  %114 = load ptr, ptr %15, align 8, !tbaa !43
  %115 = call i32 @EC_KEY_set_public_key(ptr noundef %113, ptr noundef %114)
  %116 = icmp ne i32 %115, 0
  br i1 %116, label %118, label %117

117:                                              ; preds = %112
  br label %119

118:                                              ; preds = %112, %109
  store i32 1, ptr %16, align 4, !tbaa !16
  br label %119

119:                                              ; preds = %118, %97, %117, %108, %59, %39
  %120 = load ptr, ptr %10, align 8, !tbaa !31
  call void @BN_CTX_free(ptr noundef %120)
  %121 = load ptr, ptr %11, align 8, !tbaa !42
  call void @BN_clear_free(ptr noundef %121)
  %122 = load ptr, ptr %12, align 8, !tbaa !3
  call void @CRYPTO_free(ptr noundef %122, ptr noundef @.str, i32 noundef 494)
  %123 = load ptr, ptr %15, align 8, !tbaa !43
  call void @EC_POINT_free(ptr noundef %123)
  %124 = load i32, ptr %16, align 4, !tbaa !16
  store i32 %124, ptr %4, align 4
  store i32 1, ptr %17, align 4
  br label %125

125:                                              ; preds = %119, %97, %24
  call void @llvm.lifetime.end.p0(i64 4, ptr %16) #3
  call void @llvm.lifetime.end.p0(i64 8, ptr %15) #3
  call void @llvm.lifetime.end.p0(i64 8, ptr %14) #3
  call void @llvm.lifetime.end.p0(i64 8, ptr %13) #3
  call void @llvm.lifetime.end.p0(i64 8, ptr %12) #3
  call void @llvm.lifetime.end.p0(i64 8, ptr %11) #3
  call void @llvm.lifetime.end.p0(i64 8, ptr %10) #3
  call void @llvm.lifetime.end.p0(i64 8, ptr %9) #3
  call void @llvm.lifetime.end.p0(i64 8, ptr %8) #3
  %126 = load i32, ptr %4, align 4
  ret i32 %126
}