; Function Attrs: nounwind uwtable
define range(i32 0, 2) i32 @ossl_ec_key_fromdata(ptr noundef %0, ptr noundef %1, i32 noundef %2) local_unnamed_addr #0 {
  %4 = alloca ptr, align 8
  %5 = alloca ptr, align 8
  %6 = alloca i64, align 8
  call void @llvm.lifetime.start.p0(i64 8, ptr nonnull %4) #4
  store ptr null, ptr %4, align 8, !tbaa !27
  call void @llvm.lifetime.start.p0(i64 8, ptr nonnull %5) #4
  store ptr null, ptr %5, align 8, !tbaa !26
  call void @llvm.lifetime.start.p0(i64 8, ptr nonnull %6) #4
  %7 = tail call ptr @EC_KEY_get0_group(ptr noundef %0) #4
  %8 = icmp eq ptr %7, null
  br i1 %8, label %53, label %9

9:                                                ; preds = %3
  %10 = tail call ptr @OSSL_PARAM_locate_const(ptr noundef %1, ptr noundef nonnull @.str.5) #4
  %11 = icmp ne i32 %2, 0
  br i1 %11, label %12, label %14

12:                                               ; preds = %9
  %13 = tail call ptr @OSSL_PARAM_locate_const(ptr noundef %1, ptr noundef nonnull @.str.6) #4
  br label %14

14:                                               ; preds = %12, %9
  %.030 = phi ptr [ %13, %12 ], [ null, %9 ]
  %15 = tail call ptr @ossl_ec_key_get_libctx(ptr noundef %0) #4
  %16 = tail call ptr @BN_CTX_new_ex(ptr noundef %15) #4
  %17 = icmp eq ptr %16, null
  br i1 %17, label %.thread, label %18

18:                                               ; preds = %14
  %.not = icmp eq ptr %10, null
  br i1 %.not, label %28, label %19

19:                                               ; preds = %18
  %20 = call i32 @OSSL_PARAM_get_octet_string(ptr noundef nonnull %10, ptr noundef nonnull %5, i64 noundef 0, ptr noundef nonnull %6) #4
  %.not42 = icmp eq i32 %20, 0
  br i1 %.not42, label %.thread, label %21

21:                                               ; preds = %19
  %22 = call ptr @EC_POINT_new(ptr noundef nonnull %7) #4
  %23 = icmp eq ptr %22, null
  br i1 %23, label %.thread, label %24

24:                                               ; preds = %21
  %25 = load ptr, ptr %5, align 8, !tbaa !26
  %26 = load i64, ptr %6, align 8, !tbaa !28
  %27 = call i32 @EC_POINT_oct2point(ptr noundef nonnull %7, ptr noundef nonnull %22, ptr noundef %25, i64 noundef %26, ptr noundef nonnull %16) #4
  %.not43 = icmp eq i32 %27, 0
  br i1 %.not43, label %.thread, label %28

28:                                               ; preds = %24, %18
  %.1 = phi ptr [ %22, %24 ], [ null, %18 ]
  %29 = icmp ne ptr %.030, null
  %or.cond = and i1 %11, %29
  br i1 %or.cond, label %30, label %.thread53

30:                                               ; preds = %28
  %31 = call ptr @EC_GROUP_get0_order(ptr noundef nonnull %7) #4
  %32 = icmp eq ptr %31, null
  br i1 %32, label %.thread, label %33

33:                                               ; preds = %30
  %34 = call i32 @BN_is_zero(ptr noundef nonnull %31) #4
  %.not44 = icmp eq i32 %34, 0
  br i1 %.not44, label %35, label %.thread

35:                                               ; preds = %33
  %36 = call i32 @bn_get_top(ptr noundef nonnull %31) #4
  %37 = call ptr @BN_secure_new() #4
  store ptr %37, ptr %4, align 8, !tbaa !27
  %38 = icmp eq ptr %37, null
  br i1 %38, label %.thread, label %39

39:                                               ; preds = %35
  %40 = add nsw i32 %36, 2
  %41 = call ptr @bn_wexpand(ptr noundef nonnull %37, i32 noundef %40) #4
  %42 = icmp eq ptr %41, null
  br i1 %42, label %.thread, label %43

43:                                               ; preds = %39
  call void @BN_set_flags(ptr noundef nonnull %37, i32 noundef 4) #4
  %44 = call i32 @OSSL_PARAM_get_BN(ptr noundef nonnull %.030, ptr noundef nonnull %4) #4
  %.not45 = icmp eq i32 %44, 0
  br i1 %.not45, label %.thread, label %45

45:                                               ; preds = %43
  %.pre = load ptr, ptr %4, align 8, !tbaa !27
  %.not46 = icmp eq ptr %.pre, null
  br i1 %.not46, label %.thread53, label %46

46:                                               ; preds = %45
  %47 = call i32 @EC_KEY_set_private_key(ptr noundef %0, ptr noundef nonnull %.pre) #4
  %.not47 = icmp eq i32 %47, 0
  br i1 %.not47, label %.thread, label %.thread53

.thread53:                                        ; preds = %28, %46, %45
  %.not48 = icmp eq ptr %.1, null
  br i1 %.not48, label %50, label %48

48:                                               ; preds = %.thread53
  %49 = call i32 @EC_KEY_set_public_key(ptr noundef %0, ptr noundef nonnull %.1) #4
  %.not49 = icmp eq i32 %49, 0
  br i1 %.not49, label %.thread, label %50

50:                                               ; preds = %48, %.thread53
  br label %.thread

.thread:                                          ; preds = %43, %39, %35, %30, %33, %48, %46, %19, %21, %24, %14, %50
  %.033 = phi ptr [ null, %14 ], [ null, %21 ], [ %.1, %50 ], [ %.1, %48 ], [ %.1, %46 ], [ %22, %24 ], [ null, %19 ], [ %.1, %33 ], [ %.1, %30 ], [ %.1, %35 ], [ %.1, %39 ], [ %.1, %43 ]
  %.032 = phi i32 [ 0, %14 ], [ 0, %21 ], [ 1, %50 ], [ 0, %48 ], [ 0, %46 ], [ 0, %24 ], [ 0, %19 ], [ 0, %33 ], [ 0, %30 ], [ 0, %35 ], [ 0, %39 ], [ 0, %43 ]
  call void @BN_CTX_free(ptr noundef %16) #4
  %51 = load ptr, ptr %4, align 8, !tbaa !27
  call void @BN_clear_free(ptr noundef %51) #4
  %52 = load ptr, ptr %5, align 8, !tbaa !26
  call void @CRYPTO_free(ptr noundef %52, ptr noundef nonnull @.str, i32 noundef 494) #4
  call void @EC_POINT_free(ptr noundef %.033) #4
  br label %53

53:                                               ; preds = %3, %.thread
  %.0 = phi i32 [ %.032, %.thread ], [ 0, %3 ]
  call void @llvm.lifetime.end.p0(i64 8, ptr nonnull %6) #4
  call void @llvm.lifetime.end.p0(i64 8, ptr nonnull %5) #4
  call void @llvm.lifetime.end.p0(i64 8, ptr nonnull %4) #4
  ret i32 %.0
}